target datalayout = "e-m:e-p270:32:32-p271:32:32-p272:64:64-i64:64-i128:128-f80:128-n8:16:32:64-S128"
target triple = "x86_64-pc-linux-gnu"

%struct.TupleDescData = type { i32, i32, i32, i32, ptr, [0 x %struct.CompactAttribute] }
%struct.CompactAttribute = type { i32, i16, i8, i8, i8, i8, i8, i8, i8 }
%struct.FormData_pg_attribute = type { i32, %struct.nameData, i32, i16, i16, i32, i16, i8, i8, i8, i8, i8, i8, i8, i8, i8, i8, i8, i16, i32 }
%struct.nameData = type { [64 x i8] }

; Function Attrs: inlinehint nounwind uwtable
define internal ptr @TupleDescAttr(ptr noundef %0, i32 noundef %1) #2 {
  %3 = alloca ptr, align 8
  %4 = alloca i32, align 4
  %5 = alloca ptr, align 8
  store ptr %0, ptr %3, align 8
  store i32 %1, ptr %4, align 4
  call void @llvm.lifetime.start.p0(i64 8, ptr %5) #8
  %6 = load ptr, ptr %3, align 8
  %7 = load ptr, ptr %3, align 8
  %8 = getelementptr inbounds nuw %struct.TupleDescData, ptr %7, i32 0, i32 0
  %9 = load i32, ptr %8, align 8
  %10 = sext i32 %9 to i64
  %11 = mul i64 %10, 16
  %12 = add i64 24, %11
  %13 = getelementptr inbounds nuw i8, ptr %6, i64 %12
  store ptr %13, ptr %5, align 8
  %14 = load ptr, ptr %5, align 8
  %15 = load i32, ptr %4, align 4
  %16 = sext i32 %15 to i64
  %17 = getelementptr inbounds %struct.FormData_pg_attribute, ptr %14, i64 %16
  call void @llvm.lifetime.end.p0(i64 8, ptr %5) #8
  ret ptr %17
}

; Function Attrs: nounwind uwtable
define dso_local zeroext i1 @equalRowTypes(ptr noundef %0, ptr noundef %1) #0 {
  %3 = alloca i1, align 1
  %4 = alloca ptr, align 8
  %5 = alloca ptr, align 8
  %6 = alloca i32, align 4
  %7 = alloca i32, align 4
  %8 = alloca ptr, align 8
  %9 = alloca ptr, align 8
  store ptr %0, ptr %4, align 8
  store ptr %1, ptr %5, align 8
  %10 = load ptr, ptr %4, align 8
  %11 = getelementptr inbounds nuw %struct.TupleDescData, ptr %10, i32 0, i32 0
  %12 = load i32, ptr %11, align 8
  %13 = load ptr, ptr %5, align 8
  %14 = getelementptr inbounds nuw %struct.TupleDescData, ptr %13, i32 0, i32 0
  %15 = load i32, ptr %14, align 8
  %16 = icmp ne i32 %12, %15
  br i1 %16, label %17, label %18

17:                                               ; preds = %2
  store i1 false, ptr %3, align 1
  br label %103

18:                                               ; preds = %2
  %19 = load ptr, ptr %4, align 8
  %20 = getelementptr inbounds nuw %struct.TupleDescData, ptr %19, i32 0, i32 1
  %21 = load i32, ptr %20, align 4
  %22 = load ptr, ptr %5, align 8
  %23 = getelementptr inbounds nuw %struct.TupleDescData, ptr %22, i32 0, i32 1
  %24 = load i32, ptr %23, align 4
  %25 = icmp ne i32 %21, %24
  br i1 %25, label %26, label %27

26:                                               ; preds = %18
  store i1 false, ptr %3, align 1
  br label %103

27:                                               ; preds = %18
  call void @llvm.lifetime.start.p0(i64 4, ptr %6) #8
  store i32 0, ptr %6, align 4
  br label %28

28:                                               ; preds = %97, %27
  %29 = load i32, ptr %6, align 4
  %30 = load ptr, ptr %4, align 8
  %31 = getelementptr inbounds nuw %struct.TupleDescData, ptr %30, i32 0, i32 0
  %32 = load i32, ptr %31, align 8
  %33 = icmp slt i32 %29, %32
  br i1 %33, label %35, label %34

34:                                               ; preds = %28
  store i32 2, ptr %7, align 4
  br label %100

35:                                               ; preds = %28
  call void @llvm.lifetime.start.p0(i64 8, ptr %8) #8
  %36 = load ptr, ptr %4, align 8
  %37 = load i32, ptr %6, align 4
  %38 = call ptr @TupleDescAttr(ptr noundef %36, i32 noundef %37)
  store ptr %38, ptr %8, align 8
  call void @llvm.lifetime.start.p0(i64 8, ptr %9) #8
  %39 = load ptr, ptr %5, align 8
  %40 = load i32, ptr %6, align 4
  %41 = call ptr @TupleDescAttr(ptr noundef %39, i32 noundef %40)
  store ptr %41, ptr %9, align 8
  %42 = load ptr, ptr %8, align 8
  %43 = getelementptr inbounds nuw %struct.FormData_pg_attribute, ptr %42, i32 0, i32 1
  %44 = getelementptr inbounds nuw %struct.nameData, ptr %43, i32 0, i32 0
  %45 = getelementptr inbounds [64 x i8], ptr %44, i64 0, i64 0
  %46 = load ptr, ptr %9, align 8
  %47 = getelementptr inbounds nuw %struct.FormData_pg_attribute, ptr %46, i32 0, i32 1
  %48 = getelementptr inbounds nuw %struct.nameData, ptr %47, i32 0, i32 0
  %49 = getelementptr inbounds [64 x i8], ptr %48, i64 0, i64 0
  %50 = call i32 @strcmp(ptr noundef %45, ptr noundef %49) #10
  %51 = icmp ne i32 %50, 0
  br i1 %51, label %52, label %53

52:                                               ; preds = %35
  store i1 false, ptr %3, align 1
  store i32 1, ptr %7, align 4
  br label %94

53:                                               ; preds = %35
  %54 = load ptr, ptr %8, align 8
  %55 = getelementptr inbounds nuw %struct.FormData_pg_attribute, ptr %54, i32 0, i32 2
  %56 = load i32, ptr %55, align 4
  %57 = load ptr, ptr %9, align 8
  %58 = getelementptr inbounds nuw %struct.FormData_pg_attribute, ptr %57, i32 0, i32 2
  %59 = load i32, ptr %58, align 4
  %60 = icmp ne i32 %56, %59
  br i1 %60, label %61, label %62

61:                                               ; preds = %53
  store i1 false, ptr %3, align 1
  store i32 1, ptr %7, align 4
  br label %94

62:                                               ; preds = %53
  %63 = load ptr, ptr %8, align 8
  %64 = getelementptr inbounds nuw %struct.FormData_pg_attribute, ptr %63, i32 0, i32 5
  %65 = load i32, ptr %64, align 4
  %66 = load ptr, ptr %9, align 8
  %67 = getelementptr inbounds nuw %struct.FormData_pg_attribute, ptr %66, i32 0, i32 5
  %68 = load i32, ptr %67, align 4
  %69 = icmp ne i32 %65, %68
  br i1 %69, label %70, label %71

70:                                               ; preds = %62
  store i1 false, ptr %3, align 1
  store i32 1, ptr %7, align 4
  br label %94

71:                                               ; preds = %62
  %72 = load ptr, ptr %8, align 8
  %73 = getelementptr inbounds nuw %struct.FormData_pg_attribute, ptr %72, i32 0, i32 19
  %74 = load i32, ptr %73, align 4
  %75 = load ptr, ptr %9, align 8
  %76 = getelementptr inbounds nuw %struct.FormData_pg_attribute, ptr %75, i32 0, i32 19
  %77 = load i32, ptr %76, align 4
  %78 = icmp ne i32 %74, %77
  br i1 %78, label %79, label %80

79:                                               ; preds = %71
  store i1 false, ptr %3, align 1
  store i32 1, ptr %7, align 4
  br label %94

80:                                               ; preds = %71
  %81 = load ptr, ptr %8, align 8
  %82 = getelementptr inbounds nuw %struct.FormData_pg_attribute, ptr %81, i32 0, i32 16
  %83 = load i8, ptr %82, align 1, !range !4, !noundef !5
  %84 = trunc i8 %83 to i1
  %85 = zext i1 %84 to i32
  %86 = load ptr, ptr %9, align 8
  %87 = getelementptr inbounds nuw %struct.FormData_pg_attribute, ptr %86, i32 0, i32 16
  %88 = load i8, ptr %87, align 1, !range !4, !noundef !5
  %89 = trunc i8 %88 to i1
  %90 = zext i1 %89 to i32
  %91 = icmp ne i32 %85, %90
  br i1 %91, label %92, label %93

92:                                               ; preds = %80
  store i1 false, ptr %3, align 1
  store i32 1, ptr %7, align 4
  br label %94

93:                                               ; preds = %80
  store i32 0, ptr %7, align 4
  br label %94

94:                                               ; preds = %93, %92, %79, %70, %61, %52
  call void @llvm.lifetime.end.p0(i64 8, ptr %9) #8
  call void @llvm.lifetime.end.p0(i64 8, ptr %8) #8
  %95 = load i32, ptr %7, align 4
  switch i32 %95, label %100 [
    i32 0, label %96
  ]

96:                                               ; preds = %94
  br label %97

97:                                               ; preds = %96
  %98 = load i32, ptr %6, align 4
  %99 = add i32 %98, 1
  store i32 %99, ptr %6, align 4
  br label %28, !llvm.loop !22

100:                                              ; preds = %94, %34
  call void @llvm.lifetime.end.p0(i64 4, ptr %6) #8
  %101 = load i32, ptr %7, align 4
  switch i32 %101, label %105 [
    i32 2, label %102
    i32 1, label %103
  ]

102:                                              ; preds = %100
  store i1 true, ptr %3, align 1
  br label %103

103:                                              ; preds = %102, %100, %26, %17
  %104 = load i1, ptr %3, align 1
  ret i1 %104

105:                                              ; preds = %100
  unreachable
}