; Function Attrs: nofree nounwind memory(argmem: read) uwtable
define dso_local noundef zeroext i1 @equalRowTypes(ptr noundef readonly captures(none) %0, ptr noundef readonly captures(none) %1) local_unnamed_addr #5 {
  %3 = load i32, ptr %0, align 8
  %4 = load i32, ptr %1, align 8
  %.not = icmp eq i32 %3, %4
  br i1 %.not, label %5, label %.critedge

5:                                                ; preds = %2
  %6 = getelementptr inbounds nuw i8, ptr %0, i64 4
  %7 = load i32, ptr %6, align 4
  %8 = getelementptr inbounds nuw i8, ptr %1, i64 4
  %9 = load i32, ptr %8, align 4
  %.not26 = icmp eq i32 %7, %9
  br i1 %.not26, label %.preheader, label %.critedge

.preheader:                                       ; preds = %5
  %10 = sext i32 %3 to i64
  %11 = shl nsw i64 %10, 4
  %12 = getelementptr i8, ptr %0, i64 %11
  %13 = getelementptr i8, ptr %12, i64 24
  %14 = icmp slt i32 %3, 1
  br i1 %14, label %.critedge, label %.lr.ph

.lr.ph:                                           ; preds = %.preheader
  %invariant.gep = getelementptr i8, ptr %1, i64 24
  %gep = getelementptr i8, ptr %invariant.gep, i64 %11
  %wide.trip.count = zext nneg i32 %3 to i64
  br label %16

15:                                               ; preds = %37
  %indvars.iv.next = add nuw nsw i64 %indvars.iv, 1
  %exitcond.not = icmp eq i64 %indvars.iv.next, %wide.trip.count
  br i1 %exitcond.not, label %.critedge, label %16, !llvm.loop !22

16:                                               ; preds = %.lr.ph, %15
  %indvars.iv = phi i64 [ 0, %.lr.ph ], [ %indvars.iv.next, %15 ]
  %17 = getelementptr inbounds nuw %struct.FormData_pg_attribute, ptr %13, i64 %indvars.iv
  %18 = getelementptr inbounds nuw %struct.FormData_pg_attribute, ptr %gep, i64 %indvars.iv
  %19 = getelementptr inbounds nuw i8, ptr %17, i64 4
  %20 = getelementptr inbounds nuw i8, ptr %18, i64 4
  %21 = tail call i32 @strcmp(ptr noundef nonnull dereferenceable(1) %19, ptr noundef nonnull dereferenceable(1) %20) #12
  %.not27 = icmp eq i32 %21, 0
  br i1 %.not27, label %22, label %.critedge

22:                                               ; preds = %16
  %23 = getelementptr inbounds nuw i8, ptr %17, i64 68
  %24 = load i32, ptr %23, align 4
  %25 = getelementptr inbounds nuw i8, ptr %18, i64 68
  %26 = load i32, ptr %25, align 4
  %.not28 = icmp eq i32 %24, %26
  br i1 %.not28, label %27, label %.critedge

27:                                               ; preds = %22
  %28 = getelementptr inbounds nuw i8, ptr %17, i64 76
  %29 = load i32, ptr %28, align 4
  %30 = getelementptr inbounds nuw i8, ptr %18, i64 76
  %31 = load i32, ptr %30, align 4
  %.not29 = icmp eq i32 %29, %31
  br i1 %.not29, label %32, label %.critedge

32:                                               ; preds = %27
  %33 = getelementptr inbounds nuw i8, ptr %17, i64 96
  %34 = load i32, ptr %33, align 4
  %35 = getelementptr inbounds nuw i8, ptr %18, i64 96
  %36 = load i32, ptr %35, align 4
  %.not30 = icmp eq i32 %34, %36
  br i1 %.not30, label %37, label %.critedge

37:                                               ; preds = %32
  %38 = getelementptr inbounds nuw i8, ptr %17, i64 91
  %39 = load i8, ptr %38, align 1, !range !4, !noundef !5
  %40 = getelementptr inbounds nuw i8, ptr %18, i64 91
  %41 = load i8, ptr %40, align 1, !range !4, !noundef !5
  %.not31 = icmp eq i8 %39, %41
  br i1 %.not31, label %15, label %.critedge

.critedge:                                        ; preds = %16, %22, %27, %32, %15, %37, %.preheader, %5, %2
  %.0 = phi i1 [ false, %2 ], [ false, %5 ], [ true, %.preheader ], [ false, %16 ], [ false, %22 ], [ false, %27 ], [ false, %32 ], [ true, %15 ], [ false, %37 ]
  ret i1 %.0
}